; Function Attrs: mustprogress nounwind uwtable
define dso_local void @_ZN41cmExternalMakefileProjectGeneratorFactoryC2ENSt7__cxx1112basic_stringIcSt11char_traitsIcESaIcEEES5_(ptr noundef nonnull align 8 dereferenceable(120) %0, ptr noundef nonnull %1, ptr noundef %2) unnamed_addr #4 align 2 {
  store ptr getelementptr inbounds ({ [5 x ptr] }, ptr @_ZTV41cmExternalMakefileProjectGeneratorFactory, i64 0, i32 0, i64 2), ptr %0, align 8
  %4 = getelementptr inbounds i8, ptr %0, i64 8
  tail call void @llvm.memset.p0.i64(ptr noundef nonnull align 8 dereferenceable(24) %4, i8 0, i64 24, i1 false)
  %5 = getelementptr inbounds i8, ptr %0, i64 32
  tail call void @_ZNSt7__cxx1112basic_stringIcSt11char_traitsIcESaIcEEC1EOS4_(ptr noundef nonnull align 8 dereferenceable(32) %5, ptr noundef nonnull align 8 dereferenceable(32) %1) #14
  %6 = getelementptr inbounds i8, ptr %0, i64 64
  tail call void @_ZNSt7__cxx1112basic_stringIcSt11char_traitsIcESaIcEEC1EOS4_(ptr noundef nonnull align 8 dereferenceable(32) %6, ptr noundef nonnull align 8 dereferenceable(32) %2) #14
  %7 = getelementptr inbounds i8, ptr %0, i64 96
  tail call void @llvm.memset.p0.i64(ptr noundef nonnull align 8 dereferenceable(24) %7, i8 0, i64 24, i1 false)
  ret void
}